Certificate:
    Data:
        Version: 3 (0x2)
        Serial Number: 1 (0x1)
        Signature Algorithm: sha1WithRSAEncryption
        Issuer: C=BA, ST=RS, L=Banja Luka, O=Elektrotehnicki fakultet, OU=ETF, CN=ProjektniCA/emailAddress=projektnica@ca
        Validity
            Not Before: Feb 18 19:36:14 2021 GMT
            Not After : Feb 18 19:36:14 2022 GMT
        Subject: C=BA, ST=RS, O=Elektrotehnicki fakultet, OU=ETF, CN=a/emailAddress=aaaaa
        Subject Public Key Info:
            Public Key Algorithm: rsaEncryption
                RSA Public-Key: (2048 bit)
                Modulus:
                    00:ca:ff:77:0c:3a:c4:ef:04:0d:28:3b:51:5d:bf:
                    c7:26:af:1a:43:80:c7:4c:c9:f3:f6:14:3e:57:43:
                    a9:38:98:98:38:5c:e6:f2:03:c3:04:ac:90:d4:c0:
                    f2:ff:ab:81:fa:1e:5e:54:3c:0c:69:b5:91:5c:ce:
                    e0:02:e5:49:2e:40:10:05:ce:2b:35:b6:58:4c:cc:
                    73:3e:08:f6:6f:7b:22:19:91:1c:01:44:fb:6e:63:
                    d1:bf:9e:ad:df:0e:68:4f:7a:23:8b:b3:8a:29:3a:
                    47:f4:d0:e7:dd:9b:80:b6:fb:de:30:68:a9:1d:b8:
                    09:04:25:0b:d7:ba:b6:0b:59:6a:e7:f1:8a:9c:a2:
                    41:86:13:0a:fb:80:bf:4e:04:5a:7a:30:ea:f4:77:
                    5b:90:b4:40:ce:55:32:17:77:27:d2:ae:35:34:b3:
                    23:13:a1:9b:b5:3a:65:8d:16:0f:bb:3d:55:72:ca:
                    6a:28:ae:eb:96:f5:4b:9d:ee:15:03:98:7c:cd:a9:
                    65:9f:e8:06:fd:1a:e7:bd:44:92:76:71:4d:35:64:
                    14:28:95:42:2f:92:14:e5:10:2b:e4:21:a5:1f:d0:
                    35:fc:47:83:66:79:05:60:77:c8:44:e4:6d:28:39:
                    ac:07:d6:ad:a1:17:31:d1:5a:49:fe:a6:7f:d4:e8:
                    75:07
                Exponent: 65537 (0x10001)
        X509v3 extensions:
            X509v3 Basic Constraints: 
                CA:FALSE
            X509v3 Key Usage: 
                Digital Signature, Data Encipherment
            X509v3 Extended Key Usage: 
                TLS Web Client Authentication, TLS Web Server Authentication
            Netscape Comment: 
                OpenSSL Generated Certificate
            X509v3 Subject Key Identifier: 
                FE:C9:AF:BD:EF:65:BF:3E:80:BF:BE:A2:BE:51:54:FD:CF:B4:7E:59
            X509v3 Authority Key Identifier: 
                keyid:9E:BB:EE:51:60:7E:FC:47:91:B7:71:23:AD:6E:BA:09:9C:C2:2C:93

            X509v3 CRL Distribution Points: 

                Full Name:
                  URI:http://192.168.21.89/rootcrl.pem

    Signature Algorithm: sha1WithRSAEncryption
         94:7f:bf:67:3f:a9:40:34:01:4d:08:74:d0:c4:ef:39:73:c8:
         1b:be:9c:7c:5c:c4:04:ce:01:8d:4f:39:90:ea:13:f5:ba:82:
         39:63:06:62:ab:f9:cc:44:9c:dd:19:11:3e:26:79:73:0f:2a:
         95:22:7f:ec:39:0d:d7:d1:d7:2e:94:1e:30:d3:c4:fb:94:bb:
         e8:5e:91:fb:d0:a7:87:1d:bd:de:9c:84:2f:ad:6f:d5:5d:71:
         90:5a:52:e4:2a:46:f4:b8:5e:3e:04:7a:15:6c:3c:94:1c:dd:
         89:9e:44:26:0a:49:52:bb:5e:81:8d:0d:a2:66:5c:3d:03:43:
         16:b9:d0:75:66:d0:1d:5a:18:0c:f5:9a:c4:5c:a2:60:f8:57:
         31:2e:43:9e:45:00:b7:08:18:54:0d:1b:98:41:58:63:4b:20:
         a7:15:ca:b3:1c:84:eb:f7:24:5d:99:9a:d3:1f:dc:09:22:19:
         b6:fc:76:62:97:df:63:4c:86:c0:6a:02:c8:b4:42:56:23:f1:
         0e:60:f5:ed:a3:32:ce:67:d2:0d:8d:e9:9d:db:dc:8f:2c:e0:
         84:be:f5:d1:3e:45:60:c2:89:d1:72:91:1a:d8:02:d9:b0:e4:
         39:bf:41:30:8b:16:7d:7f:5d:e7:ba:56:27:31:0f:16:bb:a1:
         dd:25:8d:fe:59:f6:a5:1d:8e:15:f4:df:37:c9:f0:75:ae:65:
         89:79:21:d4:34:bb:2c:be:5d:d0:9a:ce:74:1a:6d:56:f4:57:
         44:e9:4c:9b:7d:ce:63:4d:14:67:eb:6e:53:e6:a6:7f:27:ce:
         07:fa:9e:9d:24:4b:e6:0e:77:7e:e9:f6:a4:d6:10:e2:d1:52:
         08:d1:f2:c1:92:69:97:b8:97:54:1a:b9:23:1a:84:30:97:c8:
         2a:68:b9:96:37:10:31:13:78:da:f0:c5:2c:e5:8f:1d:69:8f:
         fb:97:a7:2d:92:53:95:52:31:6f:02:39:4f:53:7e:27:57:8e:
         43:ce:5b:6b:50:fe:da:0b:6a:5b:ce:fa:b7:fa:fc:9d:d3:c8:
         6a:a3:f3:e2:0f:ba:0f:1f:3a:2b:95:3a:fb:a4:b4:01:5b:4a:
         2b:e0:ee:8a:74:fa:3f:d9:4a:67:d3:39:0b:cd:8f:f7:b3:4c:
         f9:df:e7:74:4c:c2:54:ee:92:d3:36:11:59:49:4c:e1:cc:4e:
         27:1a:64:ed:78:28:76:0e:7a:b0:f8:77:69:21:1f:0e:20:8b:
         d5:7e:aa:90:43:52:5f:f9:c7:8f:43:82:e6:96:07:40:d4:40:
         06:44:f7:56:21:ee:78:0d:62:6d:37:5c:9f:93:65:b6:b1:2b:
         6a:0c:b7:c0:36:34:fa:fb
-----BEGIN CERTIFICATE-----
MIIFWjCCA0KgAwIBAgIBATANBgkqhkiG9w0BAQUFADCBlTELMAkGA1UEBhMCQkEx
CzAJBgNVBAgTAlJTMRMwEQYDVQQHEwpCYW5qYSBMdWthMSEwHwYDVQQKExhFbGVr
dHJvdGVobmlja2kgZmFrdWx0ZXQxDDAKBgNVBAsTA0VURjEUMBIGA1UEAxMLUHJv
amVrdG5pQ0ExHTAbBgkqhkiG9w0BCQEWDnByb2pla3RuaWNhQGNhMB4XDTIxMDIx
ODE5MzYxNFoXDTIyMDIxODE5MzYxNFowbTELMAkGA1UEBhMCQkExCzAJBgNVBAgT
AlJTMSEwHwYDVQQKExhFbGVrdHJvdGVobmlja2kgZmFrdWx0ZXQxDDAKBgNVBAsT
A0VURjEKMAgGA1UEAxMBYTEUMBIGCSqGSIb3DQEJARYFYWFhYWEwggEiMA0GCSqG
SIb3DQEBAQUAA4IBDwAwggEKAoIBAQDK/3cMOsTvBA0oO1Fdv8cmrxpDgMdMyfP2
FD5XQ6k4mJg4XObyA8MErJDUwPL/q4H6Hl5UPAxptZFczuAC5UkuQBAFzis1tlhM
zHM+CPZveyIZkRwBRPtuY9G/nq3fDmhPeiOLs4opOkf00Ofdm4C2+94waKkduAkE
JQvXurYLWWrn8YqcokGGEwr7gL9OBFp6MOr0d1uQtEDOVTIXdyfSrjU0syMToZu1
OmWNFg+7PVVyymooruuW9Uud7hUDmHzNqWWf6Ab9Gue9RJJ2cU01ZBQolUIvkhTl
ECvkIaUf0DX8R4NmeQVgd8hE5G0oOawH1q2hFzHRWkn+pn/U6HUHAgMBAAGjgdsw
gdgwCQYDVR0TBAIwADALBgNVHQ8EBAMCBJAwHQYDVR0lBBYwFAYIKwYBBQUHAwIG
CCsGAQUFBwMBMCwGCWCGSAGG+EIBDQQfFh1PcGVuU1NMIEdlbmVyYXRlZCBDZXJ0
aWZpY2F0ZTAdBgNVHQ4EFgQU/smvve9lvz6Av76ivlFU/c+0flkwHwYDVR0jBBgw
FoAUnrvuUWB+/EeRt3EjrW66CZzCLJMwMQYDVR0fBCowKDAmoCSgIoYgaHR0cDov
LzE5Mi4xNjguMjEuODkvcm9vdGNybC5wZW0wDQYJKoZIhvcNAQEFBQADggIBAJR/
v2c/qUA0AU0IdNDE7zlzyBu+nHxcxATOAY1POZDqE/W6gjljBmKr+cxEnN0ZET4m
eXMPKpUif+w5DdfR1y6UHjDTxPuUu+hekfvQp4cdvd6chC+tb9VdcZBaUuQqRvS4
Xj4EehVsPJQc3YmeRCYKSVK7XoGNDaJmXD0DQxa50HVm0B1aGAz1msRcomD4VzEu
Q55FALcIGFQNG5hBWGNLIKcVyrMchOv3JF2ZmtMf3AkiGbb8dmKX32NMhsBqAsi0
QlYj8Q5g9e2jMs5n0g2N6Z3b3I8s4IS+9dE+RWDCidFykRrYAtmw5Dm/QTCLFn1/
Xee6VicxDxa7od0ljf5Z9qUdjhX03zfJ8HWuZYl5IdQ0uyy+XdCaznQabVb0V0Tp
TJt9zmNNFGfrblPmpn8nzgf6np0kS+YOd37p9qTWEOLRUgjR8sGSaZe4l1QauSMa
hDCXyCpouZY3EDETeNrwxSzljx1pj/uXpy2SU5VSMW8COU9TfidXjkPOW2tQ/toL
alvO+rf6/J3TyGqj8+IPug8fOiuVOvuktAFbSivg7op0+j/ZSmfTOQvNj/ezTPnf
53RMwlTuktM2EVlJTOHMTicaZO14KHYOerD4d2khHw4gi9V+qpBDUl/5x49DguaW
B0DUQAZE91Yh7ngNYm03XJ+TZbaxK2oMt8A2NPr7
-----END CERTIFICATE-----
