Certificate:
    Data:
        Version: 3 (0x2)
        Serial Number: 3 (0x3)
        Signature Algorithm: sha1WithRSAEncryption
        Issuer: C=BA, ST=RS, L=Banja Luka, O=Elektrotehnicki fakultet, OU=ETF, CN=ProjektniCA/emailAddress=projektnica@ca
        Validity
            Not Before: Feb 21 01:10:56 2017 GMT
            Not After : Feb 21 01:10:56 2018 GMT
        Subject: C=BA, ST=RS, O=Elektrotehnicki fakultet, OU=ETF, CN=PogresanDatum/emailAddress=wrong@date
        Subject Public Key Info:
            Public Key Algorithm: rsaEncryption
                RSA Public-Key: (2048 bit)
                Modulus:
                    00:9c:b7:56:1c:14:88:68:57:ae:ff:28:fd:99:f7:
                    e4:0b:7e:8d:37:cd:25:7a:41:e1:0e:be:e8:8b:81:
                    74:b2:e3:59:2e:3c:44:c6:41:91:59:b4:9a:f7:51:
                    1f:3d:b9:a2:64:b4:bc:3c:48:9c:46:14:8e:64:d4:
                    bf:33:57:ab:ad:ae:66:11:7f:8c:ad:36:22:44:c5:
                    e4:f3:b3:8c:e1:7e:47:cd:c0:de:57:84:51:ec:41:
                    5d:91:5d:96:c9:59:f4:76:e6:a9:5d:54:a7:37:3f:
                    7a:35:67:3a:e5:f7:f5:e8:70:ca:1c:d6:6a:8c:22:
                    86:7e:d3:b9:f1:1c:3b:27:94:f5:42:dc:d0:12:0e:
                    17:a8:02:ce:4c:99:03:f0:21:44:a5:f4:a7:5c:97:
                    f3:6b:f0:8b:e5:3e:05:db:6b:79:13:74:5a:fd:53:
                    95:47:b8:de:1c:82:87:3c:6f:ca:61:28:3f:cb:8f:
                    e9:70:44:74:46:89:ab:80:2d:24:51:4c:c2:e3:ad:
                    d0:8e:3f:57:d7:dd:7f:33:de:0a:c8:96:62:d8:6d:
                    11:e4:d5:32:3b:b6:79:c4:35:8e:4d:59:2e:36:8a:
                    04:6b:5b:6f:5d:e6:b2:8f:9d:bb:ab:f6:7d:c2:73:
                    ea:12:f0:54:f8:0e:b9:fe:51:fb:15:f8:38:47:8c:
                    c6:31
                Exponent: 65537 (0x10001)
        X509v3 extensions:
            X509v3 Basic Constraints: 
                CA:FALSE
            X509v3 Key Usage: 
                Digital Signature, Data Encipherment
            X509v3 Extended Key Usage: 
                TLS Web Client Authentication, TLS Web Server Authentication
            Netscape Comment: 
                OpenSSL Generated Certificate
            X509v3 Subject Key Identifier: 
                F6:55:5A:75:2B:7D:0E:B5:2D:96:13:90:E9:4D:8F:8C:D4:9C:CF:22
            X509v3 Authority Key Identifier: 
                keyid:9E:BB:EE:51:60:7E:FC:47:91:B7:71:23:AD:6E:BA:09:9C:C2:2C:93

            X509v3 CRL Distribution Points: 

                Full Name:
                  URI:http://192.168.21.89/rootcrl.pem

    Signature Algorithm: sha1WithRSAEncryption
         36:18:5c:b3:68:2c:3d:76:55:41:60:32:c9:45:dd:6e:b4:71:
         33:76:f3:af:e6:2b:ef:81:83:03:8e:37:29:1f:c3:09:57:8a:
         cc:8f:10:62:91:a5:5a:95:9e:da:81:fc:c6:38:0f:51:4f:15:
         ce:32:eb:a2:66:60:c4:d0:02:4e:fe:c1:dc:86:cb:6a:48:01:
         20:fb:1f:19:c4:fb:79:b3:81:af:4d:cd:c5:d5:d1:01:65:46:
         e9:2a:47:bd:07:a3:c5:7d:91:f7:ba:cd:5d:4f:f6:44:4a:d7:
         25:6c:d9:42:01:24:a1:1c:7d:6e:87:20:f8:f6:24:4a:09:b7:
         a3:30:50:51:9a:c3:5a:9d:e7:38:ca:7e:a1:08:fe:6f:50:37:
         f6:33:d2:99:0f:c9:6f:e2:be:29:ce:6a:33:52:e8:bc:1d:7c:
         79:5d:e3:d6:7a:5d:de:84:6c:a0:eb:91:75:de:b4:c0:c3:e2:
         74:69:82:bb:fd:a7:e9:4a:8b:ce:37:71:2d:99:7a:79:9f:b2:
         df:82:24:7b:87:19:5f:87:f7:5b:68:f7:2b:de:bc:d3:08:4d:
         0e:12:76:92:1e:b2:4b:17:4d:35:2f:05:85:b1:ef:a3:df:9f:
         1e:9f:59:3b:9c:3e:4b:9d:1e:dd:76:c6:90:26:b6:23:0a:72:
         7c:37:9e:08:2a:f5:53:42:fb:34:fd:48:a2:a9:6f:83:0f:19:
         b3:91:0d:d4:fe:08:76:7c:8d:d1:90:a2:e1:bd:22:e8:e5:bd:
         c0:e9:18:24:3a:e1:cc:7b:b5:02:63:64:2c:65:41:c7:d8:f4:
         18:ef:f8:8a:33:14:9d:41:14:24:13:e8:75:0f:18:da:a7:49:
         6e:fb:a8:d3:8f:03:ed:9a:f2:2b:3d:96:fe:c3:09:b4:49:87:
         3d:2d:e2:1f:04:75:47:47:bf:38:06:27:ef:68:c6:e4:a8:00:
         df:4b:49:63:cd:01:a2:65:49:0d:23:77:08:87:a5:5b:de:81:
         20:1d:7c:04:92:70:dc:20:50:2a:5b:e5:0d:2f:42:9d:b2:b8:
         5c:74:55:6d:6a:76:fe:a1:c5:90:a6:cc:63:80:82:38:13:14:
         0b:86:4f:17:67:64:0b:60:be:e0:8a:ed:0c:08:7e:67:cc:79:
         08:3d:d8:66:45:f6:d9:5c:2e:d4:f3:2a:7f:be:46:4a:b3:74:
         5e:f5:24:ae:0a:09:b3:4b:7f:14:da:22:e9:95:33:88:20:62:
         05:cf:55:ef:13:bb:ad:43:e1:75:95:73:7b:81:f5:fc:0e:4a:
         9d:7f:68:02:e3:bb:8f:6a:e8:bd:9d:72:e1:e5:a6:2f:89:15:
         01:46:30:a2:69:d2:f2:96
-----BEGIN CERTIFICATE-----
MIIFazCCA1OgAwIBAgIBAzANBgkqhkiG9w0BAQUFADCBlTELMAkGA1UEBhMCQkEx
CzAJBgNVBAgTAlJTMRMwEQYDVQQHEwpCYW5qYSBMdWthMSEwHwYDVQQKExhFbGVr
dHJvdGVobmlja2kgZmFrdWx0ZXQxDDAKBgNVBAsTA0VURjEUMBIGA1UEAxMLUHJv
amVrdG5pQ0ExHTAbBgkqhkiG9w0BCQEWDnByb2pla3RuaWNhQGNhMB4XDTE3MDIy
MTAxMTA1NloXDTE4MDIyMTAxMTA1NlowfjELMAkGA1UEBhMCQkExCzAJBgNVBAgT
AlJTMSEwHwYDVQQKExhFbGVrdHJvdGVobmlja2kgZmFrdWx0ZXQxDDAKBgNVBAsT
A0VURjEWMBQGA1UEAxMNUG9ncmVzYW5EYXR1bTEZMBcGCSqGSIb3DQEJARYKd3Jv
bmdAZGF0ZTCCASIwDQYJKoZIhvcNAQEBBQADggEPADCCAQoCggEBAJy3VhwUiGhX
rv8o/Zn35At+jTfNJXpB4Q6+6IuBdLLjWS48RMZBkVm0mvdRHz25omS0vDxInEYU
jmTUvzNXq62uZhF/jK02IkTF5POzjOF+R83A3leEUexBXZFdlslZ9HbmqV1Upzc/
ejVnOuX39ehwyhzWaowihn7TufEcOyeU9ULc0BIOF6gCzkyZA/AhRKX0p1yX82vw
i+U+BdtreRN0Wv1TlUe43hyChzxvymEoP8uP6XBEdEaJq4AtJFFMwuOt0I4/V9fd
fzPeCsiWYthtEeTVMju2ecQ1jk1ZLjaKBGtbb13mso+du6v2fcJz6hLwVPgOuf5R
+xX4OEeMxjECAwEAAaOB2zCB2DAJBgNVHRMEAjAAMAsGA1UdDwQEAwIEkDAdBgNV
HSUEFjAUBggrBgEFBQcDAgYIKwYBBQUHAwEwLAYJYIZIAYb4QgENBB8WHU9wZW5T
U0wgR2VuZXJhdGVkIENlcnRpZmljYXRlMB0GA1UdDgQWBBT2VVp1K30OtS2WE5Dp
TY+M1JzPIjAfBgNVHSMEGDAWgBSeu+5RYH78R5G3cSOtbroJnMIskzAxBgNVHR8E
KjAoMCagJKAihiBodHRwOi8vMTkyLjE2OC4yMS44OS9yb290Y3JsLnBlbTANBgkq
hkiG9w0BAQUFAAOCAgEANhhcs2gsPXZVQWAyyUXdbrRxM3bzr+Yr74GDA443KR/D
CVeKzI8QYpGlWpWe2oH8xjgPUU8VzjLromZgxNACTv7B3IbLakgBIPsfGcT7ebOB
r03NxdXRAWVG6SpHvQejxX2R97rNXU/2RErXJWzZQgEkoRx9bocg+PYkSgm3ozBQ
UZrDWp3nOMp+oQj+b1A39jPSmQ/Jb+K+Kc5qM1LovB18eV3j1npd3oRsoOuRdd60
wMPidGmCu/2n6UqLzjdxLZl6eZ+y34Ike4cZX4f3W2j3K9680whNDhJ2kh6ySxdN
NS8FhbHvo9+fHp9ZO5w+S50e3XbGkCa2IwpyfDeeCCr1U0L7NP1Ioqlvgw8Zs5EN
1P4IdnyN0ZCi4b0i6OW9wOkYJDrhzHu1AmNkLGVBx9j0GO/4ijMUnUEUJBPodQ8Y
2qdJbvuo048D7ZryKz2W/sMJtEmHPS3iHwR1R0e/OAYn72jG5KgA30tJY80BomVJ
DSN3CIelW96BIB18BJJw3CBQKlvlDS9CnbK4XHRVbWp2/qHFkKbMY4CCOBMUC4ZP
F2dkC2C+4IrtDAh+Z8x5CD3YZkX22Vwu1PMqf75GSrN0XvUkrgoJs0t/FNoi6ZUz
iCBiBc9V7xO7rUPhdZVze4H1/A5KnX9oAuO7j2rovZ1y4eWmL4kVAUYwomnS8pY=
-----END CERTIFICATE-----
