Certificate:
    Data:
        Version: 3 (0x2)
        Serial Number: 4 (0x4)
        Signature Algorithm: sha1WithRSAEncryption
        Issuer: C=BA, ST=RS, L=Banja Luka, O=Elektrotehnicki fakultet, OU=ETF, CN=ProjektniCA/emailAddress=projektnica@ca
        Validity
            Not Before: Feb 21 20:17:33 2021 GMT
            Not After : Feb 21 20:17:33 2022 GMT
        Subject: C=BA, ST=RS, O=Elektrotehnicki fakultet, OU=ETF, CN=revoke/emailAddress=revoke@revoke
        Subject Public Key Info:
            Public Key Algorithm: rsaEncryption
                RSA Public-Key: (2048 bit)
                Modulus:
                    00:b7:aa:14:b2:be:13:8b:47:91:d0:0f:54:63:cc:
                    85:d7:a3:53:dc:d3:62:27:55:df:46:91:f7:60:8a:
                    9d:17:45:a9:6b:bf:fa:7d:6c:e3:04:cb:03:54:13:
                    79:f1:39:19:ac:ba:70:78:80:c2:25:90:a6:21:21:
                    44:fa:b0:b4:2d:a8:9e:a0:7e:d2:03:9d:ce:b8:2a:
                    e4:40:f0:90:49:3e:58:0c:6c:61:e2:2f:a1:48:09:
                    ee:22:62:78:c5:c8:e6:9a:dc:24:c4:f0:c7:42:a8:
                    90:a2:6b:13:50:cc:29:bd:54:cc:9e:d4:0d:cc:b5:
                    45:fe:4c:b8:c2:10:58:13:1e:68:8c:63:a5:e4:1e:
                    c1:92:4c:72:7b:dc:01:fa:1c:38:c4:8c:36:34:c2:
                    98:48:c4:24:54:e6:fb:b1:23:e2:c3:7e:97:81:aa:
                    94:63:75:17:91:cf:08:c1:eb:f8:49:4d:c7:5c:43:
                    83:50:bc:b7:05:be:0b:1c:03:5f:35:c1:10:15:12:
                    01:15:cc:be:0c:d9:2b:a6:09:f2:20:f2:28:b4:81:
                    31:6c:b5:02:9c:81:bd:e1:5d:02:1c:d5:a7:8b:72:
                    c3:2f:fa:82:96:ff:74:5f:62:41:dd:0a:22:83:f0:
                    93:69:a1:e6:73:b5:de:57:ae:8c:ce:8f:fd:96:c5:
                    fa:09
                Exponent: 65537 (0x10001)
        X509v3 extensions:
            X509v3 Basic Constraints: 
                CA:FALSE
            X509v3 Key Usage: 
                Digital Signature, Data Encipherment
            X509v3 Extended Key Usage: 
                TLS Web Client Authentication, TLS Web Server Authentication
            Netscape Comment: 
                OpenSSL Generated Certificate
            X509v3 Subject Key Identifier: 
                DC:B5:04:02:C2:9F:1D:53:55:83:9A:9F:85:95:30:91:F1:BA:35:36
            X509v3 Authority Key Identifier: 
                keyid:9E:BB:EE:51:60:7E:FC:47:91:B7:71:23:AD:6E:BA:09:9C:C2:2C:93

            X509v3 CRL Distribution Points: 

                Full Name:
                  URI:http://192.168.21.89/rootcrl.pem

    Signature Algorithm: sha1WithRSAEncryption
         a8:6e:00:ed:f3:7f:8c:fd:ba:3a:43:92:23:b1:3a:9f:9d:33:
         a3:0c:a0:a7:bf:51:16:65:fa:c5:eb:87:d3:93:08:e3:d3:20:
         07:d9:00:be:a3:fd:a1:13:35:0f:58:16:b5:47:be:e4:ca:1f:
         99:18:dd:66:f2:75:3a:76:50:74:3b:fa:05:35:23:bd:f5:6c:
         9c:6c:8c:96:6f:6e:4e:2d:33:5d:de:e5:8c:5b:78:03:f2:c0:
         64:6d:3b:a4:8b:da:b7:4f:6b:15:5b:c1:c0:eb:4e:5a:8c:a0:
         31:27:f3:1a:7c:be:f2:6f:f6:d6:d3:cc:43:a7:1c:4d:8c:c4:
         4e:4a:43:93:47:f0:ae:41:c2:15:52:43:59:6f:7a:82:8b:1d:
         61:5e:f3:5b:89:88:e3:dd:ac:0d:ce:52:1a:7f:b6:c7:3e:05:
         c4:fd:1f:c1:76:f8:3f:ba:8e:ba:b5:3f:51:4b:8d:4a:97:11:
         0c:9a:f7:69:53:ae:bd:5f:08:44:ce:1e:1a:f8:0c:37:b1:f8:
         ce:37:f2:d0:d8:2a:38:8b:11:b4:97:0c:9d:3e:d0:b9:83:63:
         6c:36:6a:7e:54:95:a7:4a:86:f2:40:65:ea:4d:40:fb:eb:c4:
         41:5b:77:59:39:b5:75:e0:2f:cf:9f:59:71:85:4e:1e:39:bf:
         72:b9:22:66:ed:1d:cb:bd:21:0f:8a:a2:5f:0e:e6:65:ad:dc:
         0d:fb:1f:8c:8c:80:66:b3:6f:70:8a:a8:bf:d0:13:9d:16:2c:
         e3:48:a5:d0:dd:27:32:ed:31:61:c5:a5:90:f6:e4:17:2d:b6:
         63:4a:c1:25:e9:25:46:5e:00:ed:a2:09:c9:b2:39:7c:dc:54:
         4c:5a:16:2d:df:88:21:39:a7:bb:f2:76:82:28:53:8b:ad:20:
         b6:2a:60:94:2f:b9:fc:c2:22:73:05:6b:93:48:94:f5:51:41:
         c6:f1:e7:10:af:13:e5:cf:86:5c:6e:fd:0c:31:ec:a4:29:d7:
         36:5f:2c:d7:47:b1:b1:c4:0d:9e:96:6a:ae:c2:80:05:65:ce:
         41:8c:0b:ef:69:c5:c5:db:66:83:0d:d1:bc:4b:ae:9c:6d:eb:
         01:cc:8b:ed:ce:5a:6d:9e:3b:39:98:82:ea:ac:b8:74:7f:3d:
         75:f6:c5:b3:6e:d2:90:f8:f9:22:91:3a:64:dd:a8:f9:9e:57:
         ed:7d:3d:89:1e:26:75:e4:18:98:07:be:72:85:e6:f4:1f:00:
         47:1a:3d:ec:6c:ee:2f:9a:38:6f:da:b4:31:12:62:fa:79:f1:
         a8:59:2e:43:39:21:4b:e3:79:c6:e8:16:91:11:4e:92:98:dd:
         fc:53:0f:0c:a7:b2:9d:34
-----BEGIN CERTIFICATE-----
MIIFZzCCA0+gAwIBAgIBBDANBgkqhkiG9w0BAQUFADCBlTELMAkGA1UEBhMCQkEx
CzAJBgNVBAgTAlJTMRMwEQYDVQQHEwpCYW5qYSBMdWthMSEwHwYDVQQKExhFbGVr
dHJvdGVobmlja2kgZmFrdWx0ZXQxDDAKBgNVBAsTA0VURjEUMBIGA1UEAxMLUHJv
amVrdG5pQ0ExHTAbBgkqhkiG9w0BCQEWDnByb2pla3RuaWNhQGNhMB4XDTIxMDIy
MTIwMTczM1oXDTIyMDIyMTIwMTczM1owejELMAkGA1UEBhMCQkExCzAJBgNVBAgT
AlJTMSEwHwYDVQQKExhFbGVrdHJvdGVobmlja2kgZmFrdWx0ZXQxDDAKBgNVBAsT
A0VURjEPMA0GA1UEAxMGcmV2b2tlMRwwGgYJKoZIhvcNAQkBFg1yZXZva2VAcmV2
b2tlMIIBIjANBgkqhkiG9w0BAQEFAAOCAQ8AMIIBCgKCAQEAt6oUsr4Ti0eR0A9U
Y8yF16NT3NNiJ1XfRpH3YIqdF0Wpa7/6fWzjBMsDVBN58TkZrLpweIDCJZCmISFE
+rC0LaieoH7SA53OuCrkQPCQST5YDGxh4i+hSAnuImJ4xcjmmtwkxPDHQqiQomsT
UMwpvVTMntQNzLVF/ky4whBYEx5ojGOl5B7Bkkxye9wB+hw4xIw2NMKYSMQkVOb7
sSPiw36XgaqUY3UXkc8Iwev4SU3HXEODULy3Bb4LHANfNcEQFRIBFcy+DNkrpgny
IPIotIExbLUCnIG94V0CHNWni3LDL/qClv90X2JB3Qoig/CTaaHmc7XeV66Mzo/9
lsX6CQIDAQABo4HbMIHYMAkGA1UdEwQCMAAwCwYDVR0PBAQDAgSQMB0GA1UdJQQW
MBQGCCsGAQUFBwMCBggrBgEFBQcDATAsBglghkgBhvhCAQ0EHxYdT3BlblNTTCBH
ZW5lcmF0ZWQgQ2VydGlmaWNhdGUwHQYDVR0OBBYEFNy1BALCnx1TVYOan4WVMJHx
ujU2MB8GA1UdIwQYMBaAFJ677lFgfvxHkbdxI61uugmcwiyTMDEGA1UdHwQqMCgw
JqAkoCKGIGh0dHA6Ly8xOTIuMTY4LjIxLjg5L3Jvb3RjcmwucGVtMA0GCSqGSIb3
DQEBBQUAA4ICAQCobgDt83+M/bo6Q5IjsTqfnTOjDKCnv1EWZfrF64fTkwjj0yAH
2QC+o/2hEzUPWBa1R77kyh+ZGN1m8nU6dlB0O/oFNSO99WycbIyWb25OLTNd3uWM
W3gD8sBkbTuki9q3T2sVW8HA605ajKAxJ/MafL7yb/bW08xDpxxNjMROSkOTR/Cu
QcIVUkNZb3qCix1hXvNbiYjj3awNzlIaf7bHPgXE/R/Bdvg/uo66tT9RS41KlxEM
mvdpU669XwhEzh4a+Aw3sfjON/LQ2Co4ixG0lwydPtC5g2NsNmp+VJWnSobyQGXq
TUD768RBW3dZObV14C/Pn1lxhU4eOb9yuSJm7R3LvSEPiqJfDuZlrdwN+x+MjIBm
s29wiqi/0BOdFizjSKXQ3Scy7TFhxaWQ9uQXLbZjSsEl6SVGXgDtognJsjl83FRM
WhYt34ghOae78naCKFOLrSC2KmCUL7n8wiJzBWuTSJT1UUHG8ecQrxPlz4Zcbv0M
MeykKdc2XyzXR7GxxA2elmquwoAFZc5BjAvvacXF22aDDdG8S66cbesBzIvtzlpt
njs5mILqrLh0fz119sWzbtKQ+PkikTpk3aj5nlftfT2JHiZ15BiYB75yheb0HwBH
Gj3sbO4vmjhv2rQxEmL6efGoWS5DOSFL43nG6BaREU6SmN38Uw8Mp7KdNA==
-----END CERTIFICATE-----
