Certificate:
    Data:
        Version: 3 (0x2)
        Serial Number: 2 (0x2)
        Signature Algorithm: sha1WithRSAEncryption
        Issuer: C=BA, ST=RS, L=Banja Luka, O=Elektrotehnicki fakultet, OU=ETF, CN=ProjektniCA/emailAddress=projektnica@ca
        Validity
            Not Before: Feb 18 19:36:45 2021 GMT
            Not After : Feb 18 19:36:45 2022 GMT
        Subject: C=BA, ST=RS, O=Elektrotehnicki fakultet, OU=ETF, CN=b/emailAddress=bbbbb
        Subject Public Key Info:
            Public Key Algorithm: rsaEncryption
                RSA Public-Key: (2048 bit)
                Modulus:
                    00:c5:26:11:98:28:0d:2e:16:08:ef:9a:c8:bf:e2:
                    62:51:34:3a:4c:d4:97:2b:bb:2d:c2:c9:ed:46:7a:
                    e0:02:a5:8a:7d:c8:3a:1f:12:a6:64:77:53:f2:58:
                    8a:76:47:85:85:7d:b4:01:b4:9c:f2:54:11:b2:6a:
                    87:c2:74:6e:48:bc:07:2d:21:f4:16:cc:97:a0:b3:
                    38:27:35:7e:7e:3b:9a:d2:2e:59:f0:50:69:6b:2a:
                    58:eb:5d:40:64:78:9e:1e:d3:01:ac:f0:e2:61:ff:
                    39:bd:a2:3f:94:7c:29:99:2d:92:0a:5b:ab:4b:08:
                    31:28:d9:ec:3f:86:c0:8f:48:3f:e8:39:3b:b4:a9:
                    c4:3e:ed:9f:62:e8:d4:ee:6d:95:fa:c5:79:ff:e5:
                    14:d1:69:9d:81:5f:c5:92:4d:b4:91:1e:bb:ab:aa:
                    63:80:52:19:db:24:da:ec:1f:82:5b:57:72:6b:38:
                    8f:eb:e4:ad:5f:46:4d:51:a6:5c:a6:61:6f:dd:1c:
                    ef:98:07:29:c2:95:c8:b7:32:60:44:d8:8c:c4:62:
                    3b:d1:dd:97:0a:38:06:2d:e4:c8:a3:f5:6b:8e:27:
                    da:c4:2e:81:b6:e0:b6:b7:71:c5:26:54:77:69:87:
                    d2:1d:a8:f1:8d:4a:ef:9f:fc:de:79:e8:4e:07:49:
                    85:d7
                Exponent: 65537 (0x10001)
        X509v3 extensions:
            X509v3 Basic Constraints: 
                CA:FALSE
            X509v3 Key Usage: 
                Digital Signature, Data Encipherment
            X509v3 Extended Key Usage: 
                TLS Web Client Authentication, TLS Web Server Authentication
            Netscape Comment: 
                OpenSSL Generated Certificate
            X509v3 Subject Key Identifier: 
                9F:B2:36:71:07:D1:0B:4A:74:FA:90:10:02:8F:D7:D1:83:CD:CF:0F
            X509v3 Authority Key Identifier: 
                keyid:9E:BB:EE:51:60:7E:FC:47:91:B7:71:23:AD:6E:BA:09:9C:C2:2C:93

            X509v3 CRL Distribution Points: 

                Full Name:
                  URI:http://192.168.21.89/rootcrl.pem

    Signature Algorithm: sha1WithRSAEncryption
         28:dd:9b:6f:0c:d4:b2:8d:82:92:88:06:f3:3a:58:af:8a:3c:
         bb:fc:c6:a8:4d:63:2d:d5:04:a2:07:9d:f2:ec:e6:0e:67:4b:
         96:30:56:bf:29:48:da:95:20:37:ab:8f:35:18:46:07:80:24:
         6c:53:04:3d:f5:fb:a4:ac:fa:a2:8f:0c:43:e6:6b:55:e8:02:
         e1:70:a4:34:e6:e3:0f:d6:08:ed:0b:22:d6:2e:2f:e0:94:ba:
         bb:35:3c:e6:53:ed:5e:d3:32:b1:ef:b2:7c:a4:43:15:d0:16:
         59:fb:d5:c4:cb:7f:1a:71:3d:6b:18:c0:73:c7:76:19:13:b6:
         3a:88:42:9b:6f:38:6f:48:90:5d:d9:c4:6b:ec:37:b3:13:7a:
         26:4e:ac:ac:2a:cc:90:eb:36:31:6b:2e:5d:04:5b:ba:37:95:
         d2:3e:33:c7:b2:74:a9:f1:12:80:07:f6:b6:ad:7e:e4:6c:41:
         ef:11:13:ff:a6:db:f3:b1:75:12:c2:34:47:dd:94:9c:49:c2:
         e4:59:6a:2d:b7:39:12:dc:d7:49:bd:2c:f7:4f:ee:78:84:39:
         e6:85:8f:e6:7a:6a:07:42:5d:eb:3e:6c:80:cd:d1:5e:28:3d:
         53:fc:04:56:57:ca:0d:70:44:d8:74:de:c7:05:6b:eb:2c:8b:
         9d:81:f8:7d:37:79:41:03:fa:19:89:e9:cb:23:4b:6a:c1:6d:
         cc:dc:7b:c2:28:aa:cd:2f:30:5c:e4:cd:4c:4a:0b:59:6c:90:
         14:da:3a:51:9e:1d:d4:1a:52:a9:38:1f:d5:44:82:07:e1:de:
         2e:f3:91:f2:75:a1:a6:af:a0:cc:0f:7c:42:98:c4:d5:dd:59:
         c6:d0:93:48:ce:1a:2e:7b:67:49:87:04:ce:9b:78:58:6b:dd:
         e7:5a:79:fd:44:42:4a:6d:da:0e:d9:ce:76:53:ed:b8:3d:14:
         5a:a7:0f:5c:60:f7:56:34:46:97:5c:f2:9e:41:47:ce:31:ab:
         4a:35:1f:35:a0:8f:01:bd:04:40:b7:75:7d:8f:40:8c:43:0b:
         2a:12:41:0b:85:84:7a:16:15:50:c2:88:ca:31:68:b1:4b:5a:
         5d:4f:4d:11:7a:5c:7f:45:b9:0c:13:02:d7:83:b4:e4:98:e2:
         f7:13:09:9e:c8:e5:6c:d0:4e:90:a3:8a:d8:0b:56:cd:a7:32:
         b4:f1:28:f4:f2:c0:39:7e:0b:0f:b3:98:1b:73:9e:c5:81:0c:
         5f:5d:4e:5d:45:6a:cb:38:00:a6:68:ed:6a:c7:c4:84:66:c4:
         32:c0:c4:35:7f:02:68:82:0f:ec:62:c6:7f:b8:86:33:44:65:
         e3:28:4b:39:e5:b2:bb:8e
-----BEGIN CERTIFICATE-----
MIIFWjCCA0KgAwIBAgIBAjANBgkqhkiG9w0BAQUFADCBlTELMAkGA1UEBhMCQkEx
CzAJBgNVBAgTAlJTMRMwEQYDVQQHEwpCYW5qYSBMdWthMSEwHwYDVQQKExhFbGVr
dHJvdGVobmlja2kgZmFrdWx0ZXQxDDAKBgNVBAsTA0VURjEUMBIGA1UEAxMLUHJv
amVrdG5pQ0ExHTAbBgkqhkiG9w0BCQEWDnByb2pla3RuaWNhQGNhMB4XDTIxMDIx
ODE5MzY0NVoXDTIyMDIxODE5MzY0NVowbTELMAkGA1UEBhMCQkExCzAJBgNVBAgT
AlJTMSEwHwYDVQQKExhFbGVrdHJvdGVobmlja2kgZmFrdWx0ZXQxDDAKBgNVBAsT
A0VURjEKMAgGA1UEAxMBYjEUMBIGCSqGSIb3DQEJARYFYmJiYmIwggEiMA0GCSqG
SIb3DQEBAQUAA4IBDwAwggEKAoIBAQDFJhGYKA0uFgjvmsi/4mJRNDpM1Jcruy3C
ye1GeuACpYp9yDofEqZkd1PyWIp2R4WFfbQBtJzyVBGyaofCdG5IvActIfQWzJeg
szgnNX5+O5rSLlnwUGlrKljrXUBkeJ4e0wGs8OJh/zm9oj+UfCmZLZIKW6tLCDEo
2ew/hsCPSD/oOTu0qcQ+7Z9i6NTubZX6xXn/5RTRaZ2BX8WSTbSRHrurqmOAUhnb
JNrsH4JbV3JrOI/r5K1fRk1RplymYW/dHO+YBynClci3MmBE2IzEYjvR3ZcKOAYt
5Mij9WuOJ9rELoG24La3ccUmVHdph9IdqPGNSu+f/N556E4HSYXXAgMBAAGjgdsw
gdgwCQYDVR0TBAIwADALBgNVHQ8EBAMCBJAwHQYDVR0lBBYwFAYIKwYBBQUHAwIG
CCsGAQUFBwMBMCwGCWCGSAGG+EIBDQQfFh1PcGVuU1NMIEdlbmVyYXRlZCBDZXJ0
aWZpY2F0ZTAdBgNVHQ4EFgQUn7I2cQfRC0p0+pAQAo/X0YPNzw8wHwYDVR0jBBgw
FoAUnrvuUWB+/EeRt3EjrW66CZzCLJMwMQYDVR0fBCowKDAmoCSgIoYgaHR0cDov
LzE5Mi4xNjguMjEuODkvcm9vdGNybC5wZW0wDQYJKoZIhvcNAQEFBQADggIBACjd
m28M1LKNgpKIBvM6WK+KPLv8xqhNYy3VBKIHnfLs5g5nS5YwVr8pSNqVIDerjzUY
RgeAJGxTBD31+6Ss+qKPDEPma1XoAuFwpDTm4w/WCO0LItYuL+CUurs1POZT7V7T
MrHvsnykQxXQFln71cTLfxpxPWsYwHPHdhkTtjqIQptvOG9IkF3ZxGvsN7MTeiZO
rKwqzJDrNjFrLl0EW7o3ldI+M8eydKnxEoAH9ratfuRsQe8RE/+m2/OxdRLCNEfd
lJxJwuRZai23ORLc10m9LPdP7niEOeaFj+Z6agdCXes+bIDN0V4oPVP8BFZXyg1w
RNh03scFa+ssi52B+H03eUED+hmJ6csjS2rBbczce8Ioqs0vMFzkzUxKC1lskBTa
OlGeHdQaUqk4H9VEggfh3i7zkfJ1oaavoMwPfEKYxNXdWcbQk0jOGi57Z0mHBM6b
eFhr3edaef1EQkpt2g7ZznZT7bg9FFqnD1xg91Y0Rpdc8p5BR84xq0o1HzWgjwG9
BEC3dX2PQIxDCyoSQQuFhHoWFVDCiMoxaLFLWl1PTRF6XH9FuQwTAteDtOSY4vcT
CZ7I5WzQTpCjitgLVs2nMrTxKPTywDl+Cw+zmBtznsWBDF9dTl1Fass4AKZo7WrH
xIRmxDLAxDV/AmiCD+xixn+4hjNEZeMoSznlsruO
-----END CERTIFICATE-----
